target datalayout = "e-m:e-p270:32:32-p271:32:32-p272:64:64-i64:64-i128:128-f80:128-n8:16:32:64-S128"
target triple = "x86_64-pc-linux-gnu"

%struct._cmstransform_struct = type { i32, i32, ptr, ptr, ptr, ptr, ptr, %struct._cmsCACHE, ptr, ptr, ptr, ptr, i32, i32, %struct.cmsCIEXYZ, %struct.cmsCIEXYZ, ptr, i32, double, i32, ptr, ptr, ptr, ptr, ptr, i32, i32 }
%struct._cmsCACHE = type { [16 x i16], [16 x i16] }
%struct.cmsCIEXYZ = type { double, double, double }

; Function Attrs: nounwind uwtable
define internal i32 @_cmsToFixedDomain(i32 noundef %0) #0 {
  %2 = alloca i32, align 4
  store i32 %0, ptr %2, align 4
  %3 = load i32, ptr %2, align 4
  %4 = load i32, ptr %2, align 4
  %5 = add nsw i32 %4, 32767
  %6 = sdiv i32 %5, 65535
  %7 = add nsw i32 %3, %6
  ret i32 %7
}

; Function Attrs: nounwind uwtable
define internal ptr @PackPlanarBytes(ptr noundef %0, ptr noundef %1, ptr noundef %2, i32 noundef %3) #0 {
  %5 = alloca ptr, align 8
  %6 = alloca ptr, align 8
  %7 = alloca ptr, align 8
  %8 = alloca i32, align 4
  %9 = alloca i32, align 4
  %10 = alloca i32, align 4
  %11 = alloca i32, align 4
  %12 = alloca i32, align 4
  %13 = alloca i32, align 4
  %14 = alloca i32, align 4
  %15 = alloca i32, align 4
  %16 = alloca i32, align 4
  %17 = alloca ptr, align 8
  %18 = alloca i32, align 4
  %19 = alloca i32, align 4
  %20 = alloca i16, align 2
  store ptr %0, ptr %5, align 8
  store ptr %1, ptr %6, align 8
  store ptr %2, ptr %7, align 8
  store i32 %3, ptr %8, align 4
  %21 = load ptr, ptr %5, align 8
  %22 = getelementptr inbounds %struct._cmstransform_struct, ptr %21, i32 0, i32 1
  %23 = load i32, ptr %22, align 4
  %24 = lshr i32 %23, 3
  %25 = and i32 %24, 15
  store i32 %25, ptr %9, align 4
  %26 = load ptr, ptr %5, align 8
  %27 = getelementptr inbounds %struct._cmstransform_struct, ptr %26, i32 0, i32 1
  %28 = load i32, ptr %27, align 4
  %29 = lshr i32 %28, 10
  %30 = and i32 %29, 1
  store i32 %30, ptr %10, align 4
  %31 = load ptr, ptr %5, align 8
  %32 = getelementptr inbounds %struct._cmstransform_struct, ptr %31, i32 0, i32 1
  %33 = load i32, ptr %32, align 4
  %34 = lshr i32 %33, 14
  %35 = and i32 %34, 1
  store i32 %35, ptr %11, align 4
  %36 = load ptr, ptr %5, align 8
  %37 = getelementptr inbounds %struct._cmstransform_struct, ptr %36, i32 0, i32 1
  %38 = load i32, ptr %37, align 4
  %39 = lshr i32 %38, 13
  %40 = and i32 %39, 1
  store i32 %40, ptr %12, align 4
  %41 = load ptr, ptr %5, align 8
  %42 = getelementptr inbounds %struct._cmstransform_struct, ptr %41, i32 0, i32 1
  %43 = load i32, ptr %42, align 4
  %44 = lshr i32 %43, 7
  %45 = and i32 %44, 7
  store i32 %45, ptr %13, align 4
  %46 = load i32, ptr %10, align 4
  %47 = load i32, ptr %11, align 4
  %48 = xor i32 %46, %47
  store i32 %48, ptr %14, align 4
  %49 = load ptr, ptr %5, align 8
  %50 = getelementptr inbounds %struct._cmstransform_struct, ptr %49, i32 0, i32 1
  %51 = load i32, ptr %50, align 4
  %52 = lshr i32 %51, 23
  %53 = and i32 %52, 1
  store i32 %53, ptr %15, align 4
  %54 = load ptr, ptr %7, align 8
  store ptr %54, ptr %17, align 8
  store i32 0, ptr %18, align 4
  %55 = load i32, ptr %14, align 4
  %56 = icmp ne i32 %55, 0
  br i1 %56, label %57, label %85

57:                                               ; preds = %4
  %58 = load i32, ptr %15, align 4
  %59 = icmp ne i32 %58, 0
  br i1 %59, label %60, label %78

60:                                               ; preds = %57
  %61 = load i32, ptr %13, align 4
  %62 = icmp ne i32 %61, 0
  br i1 %62, label %63, label %78

63:                                               ; preds = %60
  %64 = load ptr, ptr %7, align 8
  %65 = getelementptr inbounds i8, ptr %64, i64 0
  %66 = load i8, ptr %65, align 1
  %67 = zext i8 %66 to i16
  %68 = zext i16 %67 to i32
  %69 = shl i32 %68, 8
  %70 = load ptr, ptr %7, align 8
  %71 = getelementptr inbounds i8, ptr %70, i64 0
  %72 = load i8, ptr %71, align 1
  %73 = zext i8 %72 to i32
  %74 = or i32 %69, %73
  %75 = trunc i32 %74 to i16
  %76 = zext i16 %75 to i32
  %77 = call i32 @_cmsToFixedDomain(i32 noundef %76)
  store i32 %77, ptr %18, align 4
  br label %78

78:                                               ; preds = %63, %60, %57
  %79 = load i32, ptr %13, align 4
  %80 = load i32, ptr %8, align 4
  %81 = mul i32 %79, %80
  %82 = load ptr, ptr %7, align 8
  %83 = zext i32 %81 to i64
  %84 = getelementptr inbounds i8, ptr %82, i64 %83
  store ptr %84, ptr %7, align 8
  br label %115

85:                                               ; preds = %4
  %86 = load i32, ptr %15, align 4
  %87 = icmp ne i32 %86, 0
  br i1 %87, label %88, label %114

88:                                               ; preds = %85
  %89 = load i32, ptr %13, align 4
  %90 = icmp ne i32 %89, 0
  br i1 %90, label %91, label %114

91:                                               ; preds = %88
  %92 = load ptr, ptr %7, align 8
  %93 = load i32, ptr %9, align 4
  %94 = load i32, ptr %8, align 4
  %95 = mul i32 %93, %94
  %96 = zext i32 %95 to i64
  %97 = getelementptr inbounds i8, ptr %92, i64 %96
  %98 = load i8, ptr %97, align 1
  %99 = zext i8 %98 to i16
  %100 = zext i16 %99 to i32
  %101 = shl i32 %100, 8
  %102 = load ptr, ptr %7, align 8
  %103 = load i32, ptr %9, align 4
  %104 = load i32, ptr %8, align 4
  %105 = mul i32 %103, %104
  %106 = zext i32 %105 to i64
  %107 = getelementptr inbounds i8, ptr %102, i64 %106
  %108 = load i8, ptr %107, align 1
  %109 = zext i8 %108 to i32
  %110 = or i32 %101, %109
  %111 = trunc i32 %110 to i16
  %112 = zext i16 %111 to i32
  %113 = call i32 @_cmsToFixedDomain(i32 noundef %112)
  store i32 %113, ptr %18, align 4
  br label %114

114:                                              ; preds = %91, %88, %85
  br label %115

115:                                              ; preds = %114, %78
  store i32 0, ptr %16, align 4
  br label %116

116:                                              ; preds = %168, %115
  %117 = load i32, ptr %16, align 4
  %118 = load i32, ptr %9, align 4
  %119 = icmp ult i32 %117, %118
  br i1 %119, label %120, label %171

120:                                              ; preds = %116
  %121 = load i32, ptr %10, align 4
  %122 = icmp ne i32 %121, 0
  br i1 %122, label %123, label %128

123:                                              ; preds = %120
  %124 = load i32, ptr %9, align 4
  %125 = load i32, ptr %16, align 4
  %126 = sub i32 %124, %125
  %127 = sub i32 %126, 1
  br label %130

128:                                              ; preds = %120
  %129 = load i32, ptr %16, align 4
  br label %130

130:                                              ; preds = %128, %123
  %131 = phi i32 [ %127, %123 ], [ %129, %128 ]
  store i32 %131, ptr %19, align 4
  %132 = load ptr, ptr %6, align 8
  %133 = load i32, ptr %19, align 4
  %134 = zext i32 %133 to i64
  %135 = getelementptr inbounds i16, ptr %132, i64 %134
  %136 = load i16, ptr %135, align 2
  store i16 %136, ptr %20, align 2
  %137 = load i32, ptr %12, align 4
  %138 = icmp ne i32 %137, 0
  br i1 %138, label %139, label %144

139:                                              ; preds = %130
  %140 = load i16, ptr %20, align 2
  %141 = zext i16 %140 to i32
  %142 = sub nsw i32 65535, %141
  %143 = trunc i32 %142 to i16
  store i16 %143, ptr %20, align 2
  br label %144

144:                                              ; preds = %139, %130
  %145 = load i32, ptr %15, align 4
  %146 = icmp ne i32 %145, 0
  br i1 %146, label %147, label %155

147:                                              ; preds = %144
  %148 = load i16, ptr %20, align 2
  %149 = zext i16 %148 to i32
  %150 = load i32, ptr %18, align 4
  %151 = mul i32 %149, %150
  %152 = add i32 %151, 32768
  %153 = lshr i32 %152, 16
  %154 = trunc i32 %153 to i16
  store i16 %154, ptr %20, align 2
  br label %155

155:                                              ; preds = %147, %144
  %156 = load i16, ptr %20, align 2
  %157 = zext i16 %156 to i32
  %158 = mul i32 %157, 65281
  %159 = add i32 %158, 8388608
  %160 = lshr i32 %159, 24
  %161 = and i32 %160, 255
  %162 = trunc i32 %161 to i8
  %163 = load ptr, ptr %7, align 8
  store i8 %162, ptr %163, align 1
  %164 = load i32, ptr %8, align 4
  %165 = load ptr, ptr %7, align 8
  %166 = zext i32 %164 to i64
  %167 = getelementptr inbounds i8, ptr %165, i64 %166
  store ptr %167, ptr %7, align 8
  br label %168

168:                                              ; preds = %155
  %169 = load i32, ptr %16, align 4
  %170 = add i32 %169, 1
  store i32 %170, ptr %16, align 4
  br label %116, !llvm.loop !28

171:                                              ; preds = %116
  %172 = load ptr, ptr %17, align 8
  %173 = getelementptr inbounds i8, ptr %172, i64 1
  ret ptr %173
}