; Function Attrs: nofree norecurse nosync nounwind memory(write, argmem: readwrite, inaccessiblemem: none) uwtable
define internal nonnull ptr @PackPlanarBytes(ptr nocapture noundef readonly %0, ptr nocapture noundef readonly %1, ptr noundef %2, i32 noundef %3) #8 {
  %5 = getelementptr inbounds i8, ptr %0, i64 4
  %6 = load i32, ptr %5, align 4
  %.fr65 = freeze i32 %6
  %7 = lshr i32 %.fr65, 3
  %8 = and i32 %7, 15
  %9 = lshr i32 %.fr65, 10
  %10 = lshr i32 %.fr65, 14
  %11 = lshr i32 %.fr65, 7
  %12 = and i32 %11, 7
  %13 = xor i32 %9, %10
  %14 = and i32 %13, 1
  %15 = lshr i32 %.fr65, 23
  %16 = and i32 %15, 1
  %.not = icmp eq i32 %14, 0
  %17 = icmp ne i32 %16, 0
  %18 = icmp ne i32 %12, 0
  %or.cond3 = and i1 %17, %18
  br i1 %.not, label %31, label %19

19:                                               ; preds = %4
  br i1 %or.cond3, label %20, label %27

20:                                               ; preds = %19
  %21 = load i8, ptr %2, align 1
  %22 = zext i8 %21 to i32
  %23 = shl nuw nsw i32 %22, 8
  %24 = or disjoint i32 %23, %22
  %.lobit = lshr i8 %21, 7
  %25 = zext nneg i8 %.lobit to i32
  %26 = add nuw nsw i32 %24, %25
  br label %27

27:                                               ; preds = %20, %19
  %.048 = phi i32 [ %26, %20 ], [ 0, %19 ]
  %28 = mul i32 %12, %3
  %29 = zext i32 %28 to i64
  %30 = getelementptr inbounds i8, ptr %2, i64 %29
  br label %42

31:                                               ; preds = %4
  br i1 %or.cond3, label %32, label %42

32:                                               ; preds = %31
  %33 = mul i32 %8, %3
  %34 = zext i32 %33 to i64
  %35 = getelementptr inbounds i8, ptr %2, i64 %34
  %36 = load i8, ptr %35, align 1
  %37 = zext i8 %36 to i32
  %38 = shl nuw nsw i32 %37, 8
  %39 = or disjoint i32 %38, %37
  %.lobit56 = lshr i8 %36, 7
  %40 = zext nneg i8 %.lobit56 to i32
  %41 = add nuw nsw i32 %39, %40
  br label %42

42:                                               ; preds = %31, %32, %27
  %.149 = phi i32 [ %.048, %27 ], [ %41, %32 ], [ 0, %31 ]
  %.046 = phi ptr [ %30, %27 ], [ %2, %32 ], [ %2, %31 ]
  %.not64 = icmp eq i32 %8, 0
  br i1 %.not64, label %._crit_edge, label %.lr.ph

.lr.ph:                                           ; preds = %42
  %43 = and i32 %.fr65, 1024
  %.not52 = icmp eq i32 %43, 0
  %44 = shl i32 %.fr65, 18
  %sext = ashr i32 %44, 31
  %45 = trunc nsw i32 %sext to i16
  %.not54 = icmp eq i32 %16, 0
  %46 = zext i32 %3 to i64
  %wide.trip.count83 = zext nneg i32 %8 to i64
  br i1 %.not52, label %.lr.ph.split.us, label %.lr.ph.split

.lr.ph.split.us:                                  ; preds = %.lr.ph
  br i1 %.not54, label %.lr.ph.split.us.split.us, label %.lr.ph.split.us.split

.lr.ph.split.us.split.us:                         ; preds = %.lr.ph.split.us, %.lr.ph.split.us.split.us
  %indvars.iv80 = phi i64 [ %indvars.iv.next81, %.lr.ph.split.us.split.us ], [ 0, %.lr.ph.split.us ]
  %.14758.us.us = phi ptr [ %54, %.lr.ph.split.us.split.us ], [ %.046, %.lr.ph.split.us ]
  %47 = getelementptr inbounds i16, ptr %1, i64 %indvars.iv80
  %48 = load i16, ptr %47, align 2
  %.0.us.us = xor i16 %48, %45
  %49 = zext i16 %.0.us.us to i32
  %50 = mul nuw i32 %49, 65281
  %51 = add nuw i32 %50, 8388608
  %52 = lshr i32 %51, 24
  %53 = trunc nuw i32 %52 to i8
  store i8 %53, ptr %.14758.us.us, align 1
  %54 = getelementptr inbounds i8, ptr %.14758.us.us, i64 %46
  %indvars.iv.next81 = add nuw nsw i64 %indvars.iv80, 1
  %exitcond84.not = icmp eq i64 %indvars.iv.next81, %wide.trip.count83
  br i1 %exitcond84.not, label %._crit_edge, label %.lr.ph.split.us.split.us, !llvm.loop !28

.lr.ph.split.us.split:                            ; preds = %.lr.ph.split.us, %.lr.ph.split.us.split
  %indvars.iv75 = phi i64 [ %indvars.iv.next76, %.lr.ph.split.us.split ], [ 0, %.lr.ph.split.us ]
  %.14758.us = phi ptr [ %65, %.lr.ph.split.us.split ], [ %.046, %.lr.ph.split.us ]
  %55 = getelementptr inbounds i16, ptr %1, i64 %indvars.iv75
  %56 = load i16, ptr %55, align 2
  %.0.us = xor i16 %56, %45
  %57 = zext i16 %.0.us to i32
  %58 = mul nuw i32 %.149, %57
  %59 = add nuw i32 %58, 32768
  %60 = lshr i32 %59, 16
  %61 = mul nuw i32 %60, 65281
  %62 = add nuw i32 %61, 8388608
  %63 = lshr i32 %62, 24
  %64 = trunc nuw i32 %63 to i8
  store i8 %64, ptr %.14758.us, align 1
  %65 = getelementptr inbounds i8, ptr %.14758.us, i64 %46
  %indvars.iv.next76 = add nuw nsw i64 %indvars.iv75, 1
  %exitcond79.not = icmp eq i64 %indvars.iv.next76, %wide.trip.count83
  br i1 %exitcond79.not, label %._crit_edge, label %.lr.ph.split.us.split, !llvm.loop !28

.lr.ph.split:                                     ; preds = %.lr.ph
  br i1 %.not54, label %.lr.ph.split.split.us, label %.lr.ph.split.split

.lr.ph.split.split.us:                            ; preds = %.lr.ph.split, %.lr.ph.split.split.us
  %indvars.iv70 = phi i64 [ %indvars.iv.next71, %.lr.ph.split.split.us ], [ 0, %.lr.ph.split ]
  %.14758.us59 = phi ptr [ %77, %.lr.ph.split.split.us ], [ %.046, %.lr.ph.split ]
  %66 = trunc nuw nsw i64 %indvars.iv70 to i32
  %67 = xor i32 %66, -1
  %68 = add nsw i32 %8, %67
  %69 = zext i32 %68 to i64
  %70 = getelementptr inbounds i16, ptr %1, i64 %69
  %71 = load i16, ptr %70, align 2
  %.0.us61 = xor i16 %71, %45
  %72 = zext i16 %.0.us61 to i32
  %73 = mul nuw i32 %72, 65281
  %74 = add nuw i32 %73, 8388608
  %75 = lshr i32 %74, 24
  %76 = trunc nuw i32 %75 to i8
  store i8 %76, ptr %.14758.us59, align 1
  %77 = getelementptr inbounds i8, ptr %.14758.us59, i64 %46
  %indvars.iv.next71 = add nuw nsw i64 %indvars.iv70, 1
  %exitcond74.not = icmp eq i64 %indvars.iv.next71, %wide.trip.count83
  br i1 %exitcond74.not, label %._crit_edge, label %.lr.ph.split.split.us, !llvm.loop !28

.lr.ph.split.split:                               ; preds = %.lr.ph.split, %.lr.ph.split.split
  %indvars.iv = phi i64 [ %indvars.iv.next, %.lr.ph.split.split ], [ 0, %.lr.ph.split ]
  %.14758 = phi ptr [ %92, %.lr.ph.split.split ], [ %.046, %.lr.ph.split ]
  %78 = trunc nuw nsw i64 %indvars.iv to i32
  %79 = xor i32 %78, -1
  %80 = add nsw i32 %8, %79
  %81 = zext i32 %80 to i64
  %82 = getelementptr inbounds i16, ptr %1, i64 %81
  %83 = load i16, ptr %82, align 2
  %.0 = xor i16 %83, %45
  %84 = zext i16 %.0 to i32
  %85 = mul nuw i32 %.149, %84
  %86 = add nuw i32 %85, 32768
  %87 = lshr i32 %86, 16
  %88 = mul nuw i32 %87, 65281
  %89 = add nuw i32 %88, 8388608
  %90 = lshr i32 %89, 24
  %91 = trunc nuw i32 %90 to i8
  store i8 %91, ptr %.14758, align 1
  %92 = getelementptr inbounds i8, ptr %.14758, i64 %46
  %indvars.iv.next = add nuw nsw i64 %indvars.iv, 1
  %exitcond.not = icmp eq i64 %indvars.iv.next, %wide.trip.count83
  br i1 %exitcond.not, label %._crit_edge, label %.lr.ph.split.split, !llvm.loop !28

._crit_edge:                                      ; preds = %.lr.ph.split.split, %.lr.ph.split.split.us, %.lr.ph.split.us.split, %.lr.ph.split.us.split.us, %42
  %93 = getelementptr inbounds i8, ptr %2, i64 1
  ret ptr %93
}